; Function Attrs: nofree norecurse nosync nounwind sspstrong memory(read, inaccessiblemem: none) uwtable
define dso_local i64 @rb_obj_class(i64 noundef %0) local_unnamed_addr #6 {
  %2 = icmp eq i64 %0, 0
  %3 = and i64 %0, 7
  %4 = icmp ne i64 %3, 0
  %5 = or i1 %2, %4
  br i1 %5, label %9, label %6

6:                                                ; preds = %1
  %7 = inttoptr i64 %0 to ptr
  %8 = getelementptr inbounds nuw i8, ptr %7, i64 8
  br label %rb_class_of.exit

9:                                                ; preds = %1
  switch i64 %0, label %12 [
    i64 0, label %rb_class_of.exit
    i64 4, label %10
    i64 20, label %11
  ]

10:                                               ; preds = %9
  br label %rb_class_of.exit

11:                                               ; preds = %9
  br label %rb_class_of.exit

12:                                               ; preds = %9
  %13 = and i64 %0, 1
  %.not.i = icmp eq i64 %13, 0
  br i1 %.not.i, label %14, label %rb_class_of.exit

14:                                               ; preds = %12
  %15 = and i64 %0, 254
  %16 = icmp eq i64 %15, 12
  %spec.select.i = select i1 %16, ptr @rb_cSymbol, ptr @rb_cFloat
  br label %rb_class_of.exit

rb_class_of.exit:                                 ; preds = %6, %9, %10, %11, %12, %14
  %.0.in.i = phi ptr [ @rb_cNilClass, %10 ], [ @rb_cTrueClass, %11 ], [ %8, %6 ], [ @rb_cFalseClass, %9 ], [ @rb_cInteger, %12 ], [ %spec.select.i, %14 ]
  %.0.i = load i64, ptr %.0.in.i, align 8, !tbaa !7
  %.not9.i = icmp eq i64 %.0.i, 0
  br i1 %.not9.i, label %rb_class_real.exit, label %.lr.ph.i

.lr.ph.i:                                         ; preds = %rb_class_of.exit, %.critedge2.i
  %.010.i = phi i64 [ %23, %.critedge2.i ], [ %.0.i, %rb_class_of.exit ]
  %17 = and i64 %.010.i, 7
  %.not8.i = icmp eq i64 %17, 0
  %18 = inttoptr i64 %.010.i to ptr
  %.pre = load i64, ptr %18, align 8, !tbaa !24
  %19 = and i64 %.pre, 8223
  %or.cond.i = icmp eq i64 %19, 8194
  %or.cond = select i1 %.not8.i, i1 %or.cond.i, i1 false
  %20 = and i64 %.pre, 31
  %21 = icmp eq i64 %20, 28
  %or.cond3 = select i1 %or.cond, i1 true, i1 %21
  br i1 %or.cond3, label %.critedge2.i, label %rb_class_real.exit

.critedge2.i:                                     ; preds = %.lr.ph.i
  %22 = getelementptr inbounds nuw i8, ptr %18, i64 16
  %23 = load i64, ptr %22, align 8, !tbaa !25
  %.not.i1 = icmp eq i64 %23, 0
  br i1 %.not.i1, label %rb_class_real.exit, label %.lr.ph.i, !llvm.loop !26

rb_class_real.exit:                               ; preds = %.critedge2.i, %.lr.ph.i, %rb_class_of.exit
  %.0.lcssa.i = phi i64 [ 0, %rb_class_of.exit ], [ 0, %.critedge2.i ], [ %.010.i, %.lr.ph.i ]
  ret i64 %.0.lcssa.i
}